; Function Attrs: mustprogress uwtable
define hidden noundef ptr @_ZNK7datalog14table_relation10complementEP9func_decl(ptr noundef nonnull readonly align 8 captures(none) dereferenceable(40) %0, ptr noundef %1) unnamed_addr #3 align 2 {
  %3 = getelementptr inbounds nuw i8, ptr %0, i64 32
  %4 = load ptr, ptr %3, align 8, !tbaa !47
  %5 = load ptr, ptr %4, align 8, !tbaa !32
  %6 = getelementptr inbounds nuw i8, ptr %5, i64 128
  %7 = load ptr, ptr %6, align 8
  %8 = tail call noundef ptr %7(ptr noundef nonnull align 8 dereferenceable(36) %4, ptr noundef %1, ptr noundef null)
  %9 = getelementptr inbounds nuw i8, ptr %0, i64 8
  %10 = load ptr, ptr %9, align 8, !tbaa !54
  %11 = getelementptr inbounds nuw i8, ptr %0, i64 16
  %12 = tail call noundef ptr @_ZN7datalog21table_relation_plugin13mk_from_tableERKNS_18relation_signatureEPNS_10table_baseE(ptr noundef nonnull align 8 dereferenceable(48) %10, ptr noundef nonnull align 8 dereferenceable(8) %11, ptr noundef %8)
  ret ptr %12
}